; Function Attrs: mustprogress uwtable
define void @_ZN5boost9unit_test6output22compiler_log_formatter19entry_context_startERSoNS0_9log_levelE(ptr nocapture nonnull readnone align 8 %0, ptr noundef nonnull align 8 dereferenceable(8) %1, i32 noundef %2) unnamed_addr #3 align 2 {
  %4 = icmp eq i32 %2, 2
  br i1 %4, label %5, label %7

5:                                                ; preds = %3
  %6 = tail call noundef nonnull align 8 dereferenceable(8) ptr @_ZSt16__ostream_insertIcSt11char_traitsIcEERSt13basic_ostreamIT_T0_ES6_PKS3_l(ptr noundef nonnull align 8 dereferenceable(8) %1, ptr noundef nonnull @.str.30, i64 noundef 10)
  br label %13

7:                                                ; preds = %3
  %8 = icmp eq i32 %2, 0
  %9 = select i1 %8, ptr @.str.31, ptr @.str.32
  %10 = select i1 %8, i64 10, i64 8
  %11 = tail call noundef nonnull align 8 dereferenceable(8) ptr @_ZSt16__ostream_insertIcSt11char_traitsIcEERSt13basic_ostreamIT_T0_ES6_PKS3_l(ptr noundef nonnull align 8 dereferenceable(8) %1, ptr noundef nonnull %9, i64 noundef %10)
  %12 = tail call noundef nonnull align 8 dereferenceable(8) ptr @_ZSt16__ostream_insertIcSt11char_traitsIcEERSt13basic_ostreamIT_T0_ES6_PKS3_l(ptr noundef nonnull align 8 dereferenceable(8) %1, ptr noundef nonnull @.str.33, i64 noundef 33)
  br label %13

13:                                               ; preds = %7, %5
  ret void
}